; ModuleID = '58/1228.c'
source_filename = "58/1228.c"
target datalayout = "e-m:e-p270:32:32-p271:32:32-p272:64:64-i64:64-f80:128-n8:16:32:64-S128"
target triple = "x86_64-pc-linux-gnu"

@.str = private unnamed_addr constant [5 x i8] c"%d/n\00", align 1
@.str.1 = private unnamed_addr constant [3 x i8] c"0\0A\00", align 1
@.str.2 = private unnamed_addr constant [3 x i8] c"1\0A\00", align 1

; Function Attrs: noinline nounwind uwtable
define dso_local void @main() #0 {
  %1 = alloca i32, align 4
  %2 = alloca i32, align 4
  %3 = alloca i32, align 4
  %4 = alloca i32, align 4
  %5 = alloca i32, align 4
  %6 = alloca [124 x i8]*, align 8
  %7 = alloca [10 x i8], align 1
  store i32 1, i32* %4, align 4
  %8 = call i32 (i8*, ...) @__isoc99_scanf(i8* getelementptr inbounds ([5 x i8], [5 x i8]* @.str, i64 0, i64 0), i32* %1)
  %9 = getelementptr inbounds [10 x i8], [10 x i8]* %7, i64 0, i64 0
  %10 = call i32 (i8*, ...) bitcast (i32 (...)* @gets to i32 (i8*, ...)*)(i8* %9)
  %11 = call noalias i8* @malloc(i64 2480) #4
  %12 = bitcast i8* %11 to [124 x i8]*
  store [124 x i8]* %12, [124 x i8]** %6, align 8
  %13 = load [124 x i8]*, [124 x i8]** %6, align 8
  %14 = getelementptr inbounds [124 x i8], [124 x i8]* %13, i64 0, i64 0
  %15 = call i32 (i8*, ...) bitcast (i32 (...)* @gets to i32 (i8*, ...)*)(i8* %14)
  store i32 1, i32* %2, align 4
  br label %16

16:                                               ; preds = %27, %0
  %17 = load i32, i32* %2, align 4
  %18 = load i32, i32* %1, align 4
  %19 = icmp slt i32 %17, %18
  br i1 %19, label %20, label %30

20:                                               ; preds = %16
  %21 = load [124 x i8]*, [124 x i8]** %6, align 8
  %22 = load i32, i32* %2, align 4
  %23 = sext i32 %22 to i64
  %24 = getelementptr inbounds [124 x i8], [124 x i8]* %21, i64 %23
  %25 = getelementptr inbounds [124 x i8], [124 x i8]* %24, i64 0, i64 0
  %26 = call i32 (i8*, ...) bitcast (i32 (...)* @gets to i32 (i8*, ...)*)(i8* %25)
  br label %27

27:                                               ; preds = %20
  %28 = load i32, i32* %2, align 4
  %29 = add nsw i32 %28, 1
  store i32 %29, i32* %2, align 4
  br label %16

30:                                               ; preds = %16
  store i32 0, i32* %2, align 4
  br label %31

31:                                               ; preds = %192, %30
  %32 = load i32, i32* %2, align 4
  %33 = load i32, i32* %1, align 4
  %34 = icmp slt i32 %32, %33
  br i1 %34, label %35, label %195

35:                                               ; preds = %31
  store i32 1, i32* %4, align 4
  %36 = load [124 x i8]*, [124 x i8]** %6, align 8
  %37 = load i32, i32* %2, align 4
  %38 = sext i32 %37 to i64
  %39 = getelementptr inbounds [124 x i8], [124 x i8]* %36, i64 %38
  %40 = getelementptr inbounds [124 x i8], [124 x i8]* %39, i64 0, i64 0
  %41 = call i64 @strlen(i8* %40) #5
  %42 = trunc i64 %41 to i32
  store i32 %42, i32* %5, align 4
  %43 = load [124 x i8]*, [124 x i8]** %6, align 8
  %44 = load i32, i32* %2, align 4
  %45 = sext i32 %44 to i64
  %46 = getelementptr inbounds [124 x i8], [124 x i8]* %43, i64 %45
  %47 = getelementptr inbounds [124 x i8], [124 x i8]* %46, i64 0, i64 0
  %48 = load i8, i8* %47, align 1
  %49 = sext i8 %48 to i32
  %50 = icmp eq i32 %49, 95
  br i1 %50, label %87, label %51

51:                                               ; preds = %35
  %52 = load [124 x i8]*, [124 x i8]** %6, align 8
  %53 = load i32, i32* %2, align 4
  %54 = sext i32 %53 to i64
  %55 = getelementptr inbounds [124 x i8], [124 x i8]* %52, i64 %54
  %56 = getelementptr inbounds [124 x i8], [124 x i8]* %55, i64 0, i64 0
  %57 = load i8, i8* %56, align 1
  %58 = sext i8 %57 to i32
  %59 = icmp sle i32 %58, 90
  br i1 %59, label %60, label %69

60:                                               ; preds = %51
  %61 = load [124 x i8]*, [124 x i8]** %6, align 8
  %62 = load i32, i32* %2, align 4
  %63 = sext i32 %62 to i64
  %64 = getelementptr inbounds [124 x i8], [124 x i8]* %61, i64 %63
  %65 = getelementptr inbounds [124 x i8], [124 x i8]* %64, i64 0, i64 0
  %66 = load i8, i8* %65, align 1
  %67 = sext i8 %66 to i32
  %68 = icmp sge i32 %67, 65
  br i1 %68, label %87, label %69

69:                                               ; preds = %60, %51
  %70 = load [124 x i8]*, [124 x i8]** %6, align 8
  %71 = load i32, i32* %2, align 4
  %72 = sext i32 %71 to i64
  %73 = getelementptr inbounds [124 x i8], [124 x i8]* %70, i64 %72
  %74 = getelementptr inbounds [124 x i8], [124 x i8]* %73, i64 0, i64 0
  %75 = load i8, i8* %74, align 1
  %76 = sext i8 %75 to i32
  %77 = icmp sle i32 97, %76
  br i1 %77, label %78, label %189

78:                                               ; preds = %69
  %79 = load [124 x i8]*, [124 x i8]** %6, align 8
  %80 = load i32, i32* %2, align 4
  %81 = sext i32 %80 to i64
  %82 = getelementptr inbounds [124 x i8], [124 x i8]* %79, i64 %81
  %83 = getelementptr inbounds [124 x i8], [124 x i8]* %82, i64 0, i64 0
  %84 = load i8, i8* %83, align 1
  %85 = sext i8 %84 to i32
  %86 = icmp sle i32 %85, 122
  br i1 %86, label %87, label %189

87:                                               ; preds = %78, %60, %35
  store i32 1, i32* %3, align 4
  br label %88

88:                                               ; preds = %178, %87
  %89 = load i32, i32* %3, align 4
  %90 = load i32, i32* %5, align 4
  %91 = icmp slt i32 %89, %90
  br i1 %91, label %92, label %181

92:                                               ; preds = %88
  %93 = load [124 x i8]*, [124 x i8]** %6, align 8
  %94 = load i32, i32* %2, align 4
  %95 = sext i32 %94 to i64
  %96 = getelementptr inbounds [124 x i8], [124 x i8]* %93, i64 %95
  %97 = getelementptr inbounds [124 x i8], [124 x i8]* %96, i64 0, i64 0
  %98 = load i32, i32* %3, align 4
  %99 = sext i32 %98 to i64
  %100 = getelementptr inbounds i8, i8* %97, i64 %99
  %101 = load i8, i8* %100, align 1
  %102 = sext i8 %101 to i32
  %103 = icmp sle i32 48, %102
  br i1 %103, label %104, label %116

104:                                              ; preds = %92
  %105 = load [124 x i8]*, [124 x i8]** %6, align 8
  %106 = load i32, i32* %2, align 4
  %107 = sext i32 %106 to i64
  %108 = getelementptr inbounds [124 x i8], [124 x i8]* %105, i64 %107
  %109 = getelementptr inbounds [124 x i8], [124 x i8]* %108, i64 0, i64 0
  %110 = load i32, i32* %3, align 4
  %111 = sext i32 %110 to i64
  %112 = getelementptr inbounds i8, i8* %109, i64 %111
  %113 = load i8, i8* %112, align 1
  %114 = sext i8 %113 to i32
  %115 = icmp sle i32 %114, 57
  br i1 %115, label %177, label %116

116:                                              ; preds = %104, %92
  %117 = load [124 x i8]*, [124 x i8]** %6, align 8
  %118 = load i32, i32* %2, align 4
  %119 = sext i32 %118 to i64
  %120 = getelementptr inbounds [124 x i8], [124 x i8]* %117, i64 %119
  %121 = getelementptr inbounds [124 x i8], [124 x i8]* %120, i64 0, i64 0
  %122 = load i32, i32* %3, align 4
  %123 = sext i32 %122 to i64
  %124 = getelementptr inbounds i8, i8* %121, i64 %123
  %125 = load i8, i8* %124, align 1
  %126 = sext i8 %125 to i32
  %127 = icmp sle i32 65, %126
  br i1 %127, label %128, label %140

128:                                              ; preds = %116
  %129 = load [124 x i8]*, [124 x i8]** %6, align 8
  %130 = load i32, i32* %2, align 4
  %131 = sext i32 %130 to i64
  %132 = getelementptr inbounds [124 x i8], [124 x i8]* %129, i64 %131
  %133 = getelementptr inbounds [124 x i8], [124 x i8]* %132, i64 0, i64 0
  %134 = load i32, i32* %3, align 4
  %135 = sext i32 %134 to i64
  %136 = getelementptr inbounds i8, i8* %133, i64 %135
  %137 = load i8, i8* %136, align 1
  %138 = sext i8 %137 to i32
  %139 = icmp sle i32 %138, 90
  br i1 %139, label %177, label %140

140:                                              ; preds = %128, %116
  %141 = load [124 x i8]*, [124 x i8]** %6, align 8
  %142 = load i32, i32* %2, align 4
  %143 = sext i32 %142 to i64
  %144 = getelementptr inbounds [124 x i8], [124 x i8]* %141, i64 %143
  %145 = getelementptr inbounds [124 x i8], [124 x i8]* %144, i64 0, i64 0
  %146 = load i32, i32* %3, align 4
  %147 = sext i32 %146 to i64
  %148 = getelementptr inbounds i8, i8* %145, i64 %147
  %149 = load i8, i8* %148, align 1
  %150 = sext i8 %149 to i32
  %151 = icmp sle i32 97, %150
  br i1 %151, label %152, label %164

152:                                              ; preds = %140
  %153 = load [124 x i8]*, [124 x i8]** %6, align 8
  %154 = load i32, i32* %2, align 4
  %155 = sext i32 %154 to i64
  %156 = getelementptr inbounds [124 x i8], [124 x i8]* %153, i64 %155
  %157 = getelementptr inbounds [124 x i8], [124 x i8]* %156, i64 0, i64 0
  %158 = load i32, i32* %3, align 4
  %159 = sext i32 %158 to i64
  %160 = getelementptr inbounds i8, i8* %157, i64 %159
  %161 = load i8, i8* %160, align 1
  %162 = sext i8 %161 to i32
  %163 = icmp sle i32 %162, 122
  br i1 %163, label %177, label %164

164:                                              ; preds = %152, %140
  %165 = load [124 x i8]*, [124 x i8]** %6, align 8
  %166 = load i32, i32* %2, align 4
  %167 = sext i32 %166 to i64
  %168 = getelementptr inbounds [124 x i8], [124 x i8]* %165, i64 %167
  %169 = getelementptr inbounds [124 x i8], [124 x i8]* %168, i64 0, i64 0
  %170 = load i32, i32* %3, align 4
  %171 = sext i32 %170 to i64
  %172 = getelementptr inbounds i8, i8* %169, i64 %171
  %173 = load i8, i8* %172, align 1
  %174 = sext i8 %173 to i32
  %175 = icmp eq i32 %174, 95
  br i1 %175, label %177, label %176

176:                                              ; preds = %164
  store i32 0, i32* %4, align 4
  br label %177

177:                                              ; preds = %176, %164, %152, %128, %104
  br label %178

178:                                              ; preds = %177
  %179 = load i32, i32* %3, align 4
  %180 = add nsw i32 %179, 1
  store i32 %180, i32* %3, align 4
  br label %88

181:                                              ; preds = %88
  %182 = load i32, i32* %4, align 4
  %183 = icmp eq i32 %182, 0
  br i1 %183, label %184, label %186

184:                                              ; preds = %181
  %185 = call i32 (i8*, ...) @printf(i8* getelementptr inbounds ([3 x i8], [3 x i8]* @.str.1, i64 0, i64 0))
  br label %188

186:                                              ; preds = %181
  %187 = call i32 (i8*, ...) @printf(i8* getelementptr inbounds ([3 x i8], [3 x i8]* @.str.2, i64 0, i64 0))
  br label %188

188:                                              ; preds = %186, %184
  br label %191

189:                                              ; preds = %78, %69
  %190 = call i32 (i8*, ...) @printf(i8* getelementptr inbounds ([3 x i8], [3 x i8]* @.str.1, i64 0, i64 0))
  br label %191

191:                                              ; preds = %189, %188
  br label %192

192:                                              ; preds = %191
  %193 = load i32, i32* %2, align 4
  %194 = add nsw i32 %193, 1
  store i32 %194, i32* %2, align 4
  br label %31

195:                                              ; preds = %31
  ret void
}

declare dso_local i32 @__isoc99_scanf(i8*, ...) #1

declare dso_local i32 @gets(...) #1

; Function Attrs: nounwind
declare dso_local noalias i8* @malloc(i64) #2

; Function Attrs: nounwind readonly
declare dso_local i64 @strlen(i8*) #3

declare dso_local i32 @printf(i8*, ...) #1


!llvm.module.flags = !{!0}
!llvm.ident = !{!1}

!0 = !{i32 1, !"wchar_size", i32 4}
!1 = !{!"clang version 10.0.0-4ubuntu1 "}
